target datalayout = "e-m:e-p270:32:32-p271:32:32-p272:64:64-i64:64-i128:128-f80:128-n8:16:32:64-S128"
target triple = "x86_64-pc-linux-gnu"

%struct.stack_t = type { ptr, i32, i64 }

@.str.8 = private unnamed_addr constant [140 x i8] c"generated/home/dtcxzyw/WorkSpace/Projects/compilers/llvm-opt-benchmark/bench/abseil-cpp/abseil-cpp/absl/debugging/failure_signal_handler.cc\00", align 1
@.str.12 = private unnamed_addr constant [41 x i8] c"mmap() for alternate signal stack failed\00", align 1
@.str.13 = private unnamed_addr constant [35 x i8] c"sigaltstack() failed with errno=%d\00", align 1

; Function Attrs: inlinehint mustprogress nounwind uwtable
define linkonce_odr dso_local noundef nonnull align 8 dereferenceable(8) ptr @_ZSt3maxImERKT_S2_S2_(ptr noundef nonnull align 8 dereferenceable(8) %0, ptr noundef nonnull align 8 dereferenceable(8) %1) #9 comdat {
  %3 = alloca ptr, align 8
  %4 = alloca ptr, align 8
  %5 = alloca ptr, align 8
  store ptr %0, ptr %4, align 8, !tbaa !39
  store ptr %1, ptr %5, align 8, !tbaa !39
  %6 = load ptr, ptr %4, align 8, !tbaa !39
  %7 = load i64, ptr %6, align 8, !tbaa !34
  %8 = load ptr, ptr %5, align 8, !tbaa !39
  %9 = load i64, ptr %8, align 8, !tbaa !34
  %10 = icmp ult i64 %7, %9
  br i1 %10, label %11, label %13

11:                                               ; preds = %2
  %12 = load ptr, ptr %5, align 8, !tbaa !39
  store ptr %12, ptr %3, align 8
  br label %15

13:                                               ; preds = %2
  %14 = load ptr, ptr %4, align 8, !tbaa !39
  store ptr %14, ptr %3, align 8
  br label %15

15:                                               ; preds = %13, %11
  %16 = load ptr, ptr %3, align 8
  ret ptr %16
}

; Function Attrs: mustprogress uwtable
define internal noundef zeroext i1 @_ZN4abslL23SetupAlternateStackOnceEv() #2 {
  %1 = alloca i64, align 8
  %2 = alloca i64, align 8
  %3 = alloca i64, align 8
  %4 = alloca i64, align 8
  %5 = alloca %struct.stack_t, align 8
  %6 = alloca ptr, align 8
  %7 = alloca ptr, align 8
  call void @llvm.lifetime.start.p0(i64 8, ptr %1) #8
  %8 = call i64 @sysconf(i32 noundef 30) #8
  %9 = sub i64 %8, 1
  store i64 %9, ptr %1, align 8, !tbaa !34
  call void @llvm.lifetime.start.p0(i64 8, ptr %2) #8
  call void @llvm.lifetime.start.p0(i64 8, ptr %3) #8
  %10 = call i64 @sysconf(i32 noundef 250) #8
  store i64 %10, ptr %3, align 8, !tbaa !34
  call void @llvm.lifetime.start.p0(i64 8, ptr %4) #8
  store i64 65536, ptr %4, align 8, !tbaa !34
  %11 = call noundef nonnull align 8 dereferenceable(8) ptr @_ZSt3maxImERKT_S2_S2_(ptr noundef nonnull align 8 dereferenceable(8) %3, ptr noundef nonnull align 8 dereferenceable(8) %4)
  %12 = load i64, ptr %11, align 8, !tbaa !34
  %13 = load i64, ptr %1, align 8, !tbaa !34
  %14 = add i64 %12, %13
  %15 = load i64, ptr %1, align 8, !tbaa !34
  %16 = xor i64 %15, -1
  %17 = and i64 %14, %16
  call void @llvm.lifetime.end.p0(i64 8, ptr %4) #8
  call void @llvm.lifetime.end.p0(i64 8, ptr %3) #8
  store i64 %17, ptr %2, align 8, !tbaa !34
  call void @llvm.lifetime.start.p0(i64 24, ptr %5) #8
  call void @llvm.memset.p0.i64(ptr align 8 %5, i8 0, i64 24, i1 false)
  %18 = load i64, ptr %2, align 8, !tbaa !34
  %19 = getelementptr inbounds nuw %struct.stack_t, ptr %5, i32 0, i32 2
  store i64 %18, ptr %19, align 8, !tbaa !36
  %20 = getelementptr inbounds nuw %struct.stack_t, ptr %5, i32 0, i32 2
  %21 = load i64, ptr %20, align 8, !tbaa !36
  %22 = call ptr @mmap(ptr noundef null, i64 noundef %21, i32 noundef 3, i32 noundef 131106, i32 noundef -1, i64 noundef 0) #8
  %23 = getelementptr inbounds nuw %struct.stack_t, ptr %5, i32 0, i32 0
  store ptr %22, ptr %23, align 8, !tbaa !38
  %24 = getelementptr inbounds nuw %struct.stack_t, ptr %5, i32 0, i32 0
  %25 = load ptr, ptr %24, align 8, !tbaa !38
  %26 = icmp eq ptr %25, inttoptr (i64 -1 to ptr)
  br i1 %26, label %27, label %34

27:                                               ; preds = %0
  br label %28

28:                                               ; preds = %27
  call void @llvm.lifetime.start.p0(i64 8, ptr %6) #8
  store ptr getelementptr (i8, ptr @.str.8, i64 114), ptr %6, align 8, !tbaa !29
  call void (i32, ptr, i32, ptr, ...) @_ZN4absl16raw_log_internal6RawLogENS_11LogSeverityEPKciS3_z(i32 noundef 3, ptr noundef getelementptr (i8, ptr @.str.8, i64 114), i32 noundef 185, ptr noundef @.str.12)
  br label %29

29:                                               ; preds = %28
  unreachable

30:                                               ; No predecessors!
  br label %31

31:                                               ; preds = %30
  call void @llvm.lifetime.end.p0(i64 8, ptr %6) #8
  br label %32

32:                                               ; preds = %31
  br label %33

33:                                               ; preds = %32
  br label %34

34:                                               ; preds = %33, %0
  %35 = call i32 @sigaltstack(ptr noundef %5, ptr noundef null) #8
  %36 = icmp ne i32 %35, 0
  br i1 %36, label %37, label %46

37:                                               ; preds = %34
  br label %38

38:                                               ; preds = %37
  call void @llvm.lifetime.start.p0(i64 8, ptr %7) #8
  store ptr getelementptr (i8, ptr @.str.8, i64 114), ptr %7, align 8, !tbaa !29
  %39 = call ptr @__errno_location() #15
  %40 = load i32, ptr %39, align 4, !tbaa !4
  call void (i32, ptr, i32, ptr, ...) @_ZN4absl16raw_log_internal6RawLogENS_11LogSeverityEPKciS3_z(i32 noundef 3, ptr noundef getelementptr (i8, ptr @.str.8, i64 114), i32 noundef 195, ptr noundef @.str.13, i32 noundef %40)
  br label %41

41:                                               ; preds = %38
  unreachable

42:                                               ; No predecessors!
  br label %43

43:                                               ; preds = %42
  call void @llvm.lifetime.end.p0(i64 8, ptr %7) #8
  br label %44

44:                                               ; preds = %43
  br label %45

45:                                               ; preds = %44
  br label %46

46:                                               ; preds = %45, %34
  call void @llvm.lifetime.end.p0(i64 24, ptr %5) #8
  call void @llvm.lifetime.end.p0(i64 8, ptr %2) #8
  call void @llvm.lifetime.end.p0(i64 8, ptr %1) #8
  ret i1 true
}