; Function Attrs: mustprogress uwtable
define internal fastcc void @_ZN4abslL23SetupAlternateStackOnceEv() unnamed_addr #2 {
  %1 = alloca %struct.stack_t, align 8
  %2 = tail call i64 @sysconf(i32 noundef 30) #15
  %3 = add i64 %2, -1
  %4 = tail call i64 @sysconf(i32 noundef 250) #15
  %.sroa.speculated = tail call i64 @llvm.umax.i64(i64 %4, i64 65536)
  %5 = add i64 %3, %.sroa.speculated
  %6 = sub i64 0, %2
  %7 = and i64 %5, %6
  call void @llvm.lifetime.start.p0(i64 24, ptr nonnull %1) #15
  %8 = getelementptr inbounds nuw i8, ptr %1, i64 8
  store i64 0, ptr %8, align 8
  %9 = getelementptr inbounds nuw i8, ptr %1, i64 16
  store i64 %7, ptr %9, align 8, !tbaa !39
  %10 = tail call ptr @mmap(ptr noundef null, i64 noundef %7, i32 noundef 3, i32 noundef 131106, i32 noundef -1, i64 noundef 0) #15
  store ptr %10, ptr %1, align 8, !tbaa !41
  %11 = icmp eq ptr %10, inttoptr (i64 -1 to ptr)
  br i1 %11, label %12, label %13

12:                                               ; preds = %0
  tail call void (i32, ptr, i32, ptr, ...) @_ZN4absl16raw_log_internal6RawLogENS_11LogSeverityEPKciS3_z(i32 noundef 3, ptr noundef nonnull getelementptr inbounds nuw (i8, ptr @.str.8, i64 114), i32 noundef 185, ptr noundef nonnull @.str.12)
  unreachable

13:                                               ; preds = %0
  %14 = call i32 @sigaltstack(ptr noundef nonnull %1, ptr noundef null) #15
  %.not = icmp eq i32 %14, 0
  br i1 %.not, label %18, label %15

15:                                               ; preds = %13
  %16 = tail call ptr @__errno_location() #16
  %17 = load i32, ptr %16, align 4, !tbaa !17
  call void (i32, ptr, i32, ptr, ...) @_ZN4absl16raw_log_internal6RawLogENS_11LogSeverityEPKciS3_z(i32 noundef 3, ptr noundef nonnull getelementptr inbounds nuw (i8, ptr @.str.8, i64 114), i32 noundef 195, ptr noundef nonnull @.str.13, i32 noundef %17)
  unreachable

18:                                               ; preds = %13
  call void @llvm.lifetime.end.p0(i64 24, ptr nonnull %1) #15
  ret void
}